target datalayout = "e-m:e-p270:32:32-p271:32:32-p272:64:64-i64:64-i128:128-f80:128-n8:16:32:64-S128"
target triple = "x86_64-pc-linux-gnu"

%struct.lean_object = type { i32, i32 }

; Function Attrs: alwaysinline nounwind uwtable
define internal void @lean_dec_ref(ptr noundef %0) #1 {
  %2 = alloca ptr, align 8
  store ptr %0, ptr %2, align 8, !tbaa !4
  %3 = load ptr, ptr %2, align 8, !tbaa !4
  %4 = getelementptr inbounds nuw %struct.lean_object, ptr %3, i32 0, i32 0
  %5 = load i32, ptr %4, align 4, !tbaa !13
  %6 = icmp sgt i32 %5, 1
  %7 = zext i1 %6 to i32
  %8 = sext i32 %7 to i64
  %9 = call i64 @llvm.expect.i64(i64 %8, i64 1)
  %10 = icmp ne i64 %9, 0
  br i1 %10, label %11, label %16

11:                                               ; preds = %1
  %12 = load ptr, ptr %2, align 8, !tbaa !4
  %13 = getelementptr inbounds nuw %struct.lean_object, ptr %12, i32 0, i32 0
  %14 = load i32, ptr %13, align 4, !tbaa !13
  %15 = add i32 %14, -1
  store i32 %15, ptr %13, align 4, !tbaa !13
  br label %24

16:                                               ; preds = %1
  %17 = load ptr, ptr %2, align 8, !tbaa !4
  %18 = getelementptr inbounds nuw %struct.lean_object, ptr %17, i32 0, i32 0
  %19 = load i32, ptr %18, align 4, !tbaa !13
  %20 = icmp ne i32 %19, 0
  br i1 %20, label %21, label %23

21:                                               ; preds = %16
  %22 = load ptr, ptr %2, align 8, !tbaa !4
  call void @lean_dec_ref_cold(ptr noundef %22)
  br label %23

23:                                               ; preds = %21, %16
  br label %24

24:                                               ; preds = %23, %11
  ret void
}

; Function Attrs: alwaysinline nounwind uwtable
define internal zeroext i1 @lean_is_scalar(ptr noundef %0) #1 {
  %2 = alloca ptr, align 8
  store ptr %0, ptr %2, align 8, !tbaa !4
  %3 = load ptr, ptr %2, align 8, !tbaa !4
  %4 = ptrtoint ptr %3 to i64
  %5 = and i64 %4, 1
  %6 = icmp eq i64 %5, 1
  ret i1 %6
}

; Function Attrs: alwaysinline nounwind uwtable
define internal zeroext i1 @lean_nat_lt(ptr noundef %0, ptr noundef %1) #1 {
  %3 = alloca i1, align 1
  %4 = alloca ptr, align 8
  %5 = alloca ptr, align 8
  store ptr %0, ptr %4, align 8, !tbaa !4
  store ptr %1, ptr %5, align 8, !tbaa !4
  %6 = load ptr, ptr %4, align 8, !tbaa !4
  %7 = call zeroext i1 @lean_is_scalar(ptr noundef %6)
  br i1 %7, label %8, label %11

8:                                                ; preds = %2
  %9 = load ptr, ptr %5, align 8, !tbaa !4
  %10 = call zeroext i1 @lean_is_scalar(ptr noundef %9)
  br label %11

11:                                               ; preds = %8, %2
  %12 = phi i1 [ false, %2 ], [ %10, %8 ]
  %13 = zext i1 %12 to i32
  %14 = sext i32 %13 to i64
  %15 = call i64 @llvm.expect.i64(i64 %14, i64 1)
  %16 = icmp ne i64 %15, 0
  br i1 %16, label %17, label %21

17:                                               ; preds = %11
  %18 = load ptr, ptr %4, align 8, !tbaa !4
  %19 = load ptr, ptr %5, align 8, !tbaa !4
  %20 = icmp ult ptr %18, %19
  store i1 %20, ptr %3, align 1
  br label %25

21:                                               ; preds = %11
  %22 = load ptr, ptr %4, align 8, !tbaa !4
  %23 = load ptr, ptr %5, align 8, !tbaa !4
  %24 = call zeroext i1 @lean_nat_big_lt(ptr noundef %22, ptr noundef %23)
  store i1 %24, ptr %3, align 1
  br label %25

25:                                               ; preds = %21, %17
  %26 = load i1, ptr %3, align 1
  ret i1 %26
}

; Function Attrs: inlinehint nounwind uwtable
define internal zeroext i8 @lean_uint32_dec_le(i32 noundef %0, i32 noundef %1) #0 {
  %3 = alloca i32, align 4
  %4 = alloca i32, align 4
  store i32 %0, ptr %3, align 4, !tbaa !8
  store i32 %1, ptr %4, align 4, !tbaa !8
  %5 = load i32, ptr %3, align 4, !tbaa !8
  %6 = load i32, ptr %4, align 4, !tbaa !8
  %7 = icmp ule i32 %5, %6
  %8 = zext i1 %7 to i32
  %9 = trunc i32 %8 to i8
  ret i8 %9
}

; Function Attrs: alwaysinline nounwind uwtable
define internal void @lean_dec(ptr noundef %0) #1 {
  %2 = alloca ptr, align 8
  store ptr %0, ptr %2, align 8, !tbaa !4
  %3 = load ptr, ptr %2, align 8, !tbaa !4
  %4 = call zeroext i1 @lean_is_scalar(ptr noundef %3)
  br i1 %4, label %7, label %5

5:                                                ; preds = %1
  %6 = load ptr, ptr %2, align 8, !tbaa !4
  call void @lean_dec_ref(ptr noundef %6)
  br label %7

7:                                                ; preds = %5, %1
  ret void
}

; Function Attrs: alwaysinline nounwind uwtable
define internal zeroext i8 @lean_nat_dec_lt(ptr noundef %0, ptr noundef %1) #1 {
  %3 = alloca ptr, align 8
  %4 = alloca ptr, align 8
  store ptr %0, ptr %3, align 8, !tbaa !4
  store ptr %1, ptr %4, align 8, !tbaa !4
  %5 = load ptr, ptr %3, align 8, !tbaa !4
  %6 = load ptr, ptr %4, align 8, !tbaa !4
  %7 = call zeroext i1 @lean_nat_lt(ptr noundef %5, ptr noundef %6)
  %8 = zext i1 %7 to i8
  ret i8 %8
}

; Function Attrs: nounwind uwtable
define zeroext i8 @l_String_anyAux___at_Lake_Git_isFullObjectName___spec__1(ptr noundef %0, ptr noundef %1, ptr noundef %2) #2 {
  %4 = alloca i8, align 1
  %5 = alloca ptr, align 8
  %6 = alloca ptr, align 8
  %7 = alloca ptr, align 8
  %8 = alloca i8, align 1
  %9 = alloca i8, align 1
  %10 = alloca i32, align 4
  %11 = alloca i32, align 4
  %12 = alloca i32, align 4
  %13 = alloca i8, align 1
  %14 = alloca i32, align 4
  %15 = alloca i8, align 1
  %16 = alloca i8, align 1
  %17 = alloca i32, align 4
  %18 = alloca i8, align 1
  %19 = alloca i8, align 1
  %20 = alloca ptr, align 8
  %21 = alloca i32, align 4
  %22 = alloca i8, align 1
  %23 = alloca i32, align 4
  %24 = alloca i8, align 1
  %25 = alloca i8, align 1
  %26 = alloca i32, align 4
  %27 = alloca i8, align 1
  %28 = alloca i8, align 1
  %29 = alloca ptr, align 8
  %30 = alloca ptr, align 8
  store ptr %0, ptr %5, align 8, !tbaa !4
  store ptr %1, ptr %6, align 8, !tbaa !4
  store ptr %2, ptr %7, align 8, !tbaa !4
  br label %31

31:                                               ; preds = %122, %3
  call void @llvm.lifetime.start.p0(i64 1, ptr %8) #7
  %32 = load ptr, ptr %7, align 8, !tbaa !4
  %33 = load ptr, ptr %6, align 8, !tbaa !4
  %34 = call zeroext i8 @lean_nat_dec_lt(ptr noundef %32, ptr noundef %33)
  store i8 %34, ptr %8, align 1, !tbaa !12
  %35 = load i8, ptr %8, align 1, !tbaa !12
  %36 = zext i8 %35 to i32
  %37 = icmp eq i32 %36, 0
  br i1 %37, label %38, label %41

38:                                               ; preds = %31
  call void @llvm.lifetime.start.p0(i64 1, ptr %9) #7
  %39 = load ptr, ptr %7, align 8, !tbaa !4
  call void @lean_dec(ptr noundef %39)
  store i8 0, ptr %9, align 1, !tbaa !12
  %40 = load i8, ptr %9, align 1, !tbaa !12
  store i8 %40, ptr %4, align 1
  store i32 1, ptr %10, align 4
  call void @llvm.lifetime.end.p0(i64 1, ptr %9) #7
  br label %122

41:                                               ; preds = %31
  call void @llvm.lifetime.start.p0(i64 4, ptr %11) #7
  call void @llvm.lifetime.start.p0(i64 4, ptr %12) #7
  call void @llvm.lifetime.start.p0(i64 1, ptr %13) #7
  %42 = load ptr, ptr %5, align 8, !tbaa !4
  %43 = load ptr, ptr %7, align 8, !tbaa !4
  %44 = call i32 @lean_string_utf8_get(ptr noundef %42, ptr noundef %43)
  store i32 %44, ptr %11, align 4, !tbaa !8
  store i32 48, ptr %12, align 4, !tbaa !8
  %45 = load i32, ptr %12, align 4, !tbaa !8
  %46 = load i32, ptr %11, align 4, !tbaa !8
  %47 = call zeroext i8 @lean_uint32_dec_le(i32 noundef %45, i32 noundef %46)
  store i8 %47, ptr %13, align 1, !tbaa !12
  %48 = load i8, ptr %13, align 1, !tbaa !12
  %49 = zext i8 %48 to i32
  %50 = icmp eq i32 %49, 0
  br i1 %50, label %51, label %79

51:                                               ; preds = %41
  call void @llvm.lifetime.start.p0(i64 4, ptr %14) #7
  call void @llvm.lifetime.start.p0(i64 1, ptr %15) #7
  store i32 97, ptr %14, align 4, !tbaa !8
  %52 = load i32, ptr %14, align 4, !tbaa !8
  %53 = load i32, ptr %11, align 4, !tbaa !8
  %54 = call zeroext i8 @lean_uint32_dec_le(i32 noundef %52, i32 noundef %53)
  store i8 %54, ptr %15, align 1, !tbaa !12
  %55 = load i8, ptr %15, align 1, !tbaa !12
  %56 = zext i8 %55 to i32
  %57 = icmp eq i32 %56, 0
  br i1 %57, label %58, label %61

58:                                               ; preds = %51
  call void @llvm.lifetime.start.p0(i64 1, ptr %16) #7
  %59 = load ptr, ptr %7, align 8, !tbaa !4
  call void @lean_dec(ptr noundef %59)
  store i8 1, ptr %16, align 1, !tbaa !12
  %60 = load i8, ptr %16, align 1, !tbaa !12
  store i8 %60, ptr %4, align 1
  store i32 1, ptr %10, align 4
  call void @llvm.lifetime.end.p0(i64 1, ptr %16) #7
  br label %78

61:                                               ; preds = %51
  call void @llvm.lifetime.start.p0(i64 4, ptr %17) #7
  call void @llvm.lifetime.start.p0(i64 1, ptr %18) #7
  store i32 102, ptr %17, align 4, !tbaa !8
  %62 = load i32, ptr %11, align 4, !tbaa !8
  %63 = load i32, ptr %17, align 4, !tbaa !8
  %64 = call zeroext i8 @lean_uint32_dec_le(i32 noundef %62, i32 noundef %63)
  store i8 %64, ptr %18, align 1, !tbaa !12
  %65 = load i8, ptr %18, align 1, !tbaa !12
  %66 = zext i8 %65 to i32
  %67 = icmp eq i32 %66, 0
  br i1 %67, label %68, label %71

68:                                               ; preds = %61
  call void @llvm.lifetime.start.p0(i64 1, ptr %19) #7
  %69 = load ptr, ptr %7, align 8, !tbaa !4
  call void @lean_dec(ptr noundef %69)
  store i8 1, ptr %19, align 1, !tbaa !12
  %70 = load i8, ptr %19, align 1, !tbaa !12
  store i8 %70, ptr %4, align 1
  store i32 1, ptr %10, align 4
  call void @llvm.lifetime.end.p0(i64 1, ptr %19) #7
  br label %77

71:                                               ; preds = %61
  call void @llvm.lifetime.start.p0(i64 8, ptr %20) #7
  %72 = load ptr, ptr %5, align 8, !tbaa !4
  %73 = load ptr, ptr %7, align 8, !tbaa !4
  %74 = call ptr @lean_string_utf8_next(ptr noundef %72, ptr noundef %73)
  store ptr %74, ptr %20, align 8, !tbaa !4
  %75 = load ptr, ptr %7, align 8, !tbaa !4
  call void @lean_dec(ptr noundef %75)
  %76 = load ptr, ptr %20, align 8, !tbaa !4
  store ptr %76, ptr %7, align 8, !tbaa !4
  store i32 2, ptr %10, align 4
  call void @llvm.lifetime.end.p0(i64 8, ptr %20) #7
  br label %77

77:                                               ; preds = %71, %68
  call void @llvm.lifetime.end.p0(i64 1, ptr %18) #7
  call void @llvm.lifetime.end.p0(i64 4, ptr %17) #7
  br label %78

78:                                               ; preds = %77, %58
  call void @llvm.lifetime.end.p0(i64 1, ptr %15) #7
  call void @llvm.lifetime.end.p0(i64 4, ptr %14) #7
  br label %121

79:                                               ; preds = %41
  call void @llvm.lifetime.start.p0(i64 4, ptr %21) #7
  call void @llvm.lifetime.start.p0(i64 1, ptr %22) #7
  store i32 57, ptr %21, align 4, !tbaa !8
  %80 = load i32, ptr %11, align 4, !tbaa !8
  %81 = load i32, ptr %21, align 4, !tbaa !8
  %82 = call zeroext i8 @lean_uint32_dec_le(i32 noundef %80, i32 noundef %81)
  store i8 %82, ptr %22, align 1, !tbaa !12
  %83 = load i8, ptr %22, align 1, !tbaa !12
  %84 = zext i8 %83 to i32
  %85 = icmp eq i32 %84, 0
  br i1 %85, label %86, label %114

86:                                               ; preds = %79
  call void @llvm.lifetime.start.p0(i64 4, ptr %23) #7
  call void @llvm.lifetime.start.p0(i64 1, ptr %24) #7
  store i32 97, ptr %23, align 4, !tbaa !8
  %87 = load i32, ptr %23, align 4, !tbaa !8
  %88 = load i32, ptr %11, align 4, !tbaa !8
  %89 = call zeroext i8 @lean_uint32_dec_le(i32 noundef %87, i32 noundef %88)
  store i8 %89, ptr %24, align 1, !tbaa !12
  %90 = load i8, ptr %24, align 1, !tbaa !12
  %91 = zext i8 %90 to i32
  %92 = icmp eq i32 %91, 0
  br i1 %92, label %93, label %96

93:                                               ; preds = %86
  call void @llvm.lifetime.start.p0(i64 1, ptr %25) #7
  %94 = load ptr, ptr %7, align 8, !tbaa !4
  call void @lean_dec(ptr noundef %94)
  store i8 1, ptr %25, align 1, !tbaa !12
  %95 = load i8, ptr %25, align 1, !tbaa !12
  store i8 %95, ptr %4, align 1
  store i32 1, ptr %10, align 4
  call void @llvm.lifetime.end.p0(i64 1, ptr %25) #7
  br label %113

96:                                               ; preds = %86
  call void @llvm.lifetime.start.p0(i64 4, ptr %26) #7
  call void @llvm.lifetime.start.p0(i64 1, ptr %27) #7
  store i32 102, ptr %26, align 4, !tbaa !8
  %97 = load i32, ptr %11, align 4, !tbaa !8
  %98 = load i32, ptr %26, align 4, !tbaa !8
  %99 = call zeroext i8 @lean_uint32_dec_le(i32 noundef %97, i32 noundef %98)
  store i8 %99, ptr %27, align 1, !tbaa !12
  %100 = load i8, ptr %27, align 1, !tbaa !12
  %101 = zext i8 %100 to i32
  %102 = icmp eq i32 %101, 0
  br i1 %102, label %103, label %106

103:                                              ; preds = %96
  call void @llvm.lifetime.start.p0(i64 1, ptr %28) #7
  %104 = load ptr, ptr %7, align 8, !tbaa !4
  call void @lean_dec(ptr noundef %104)
  store i8 1, ptr %28, align 1, !tbaa !12
  %105 = load i8, ptr %28, align 1, !tbaa !12
  store i8 %105, ptr %4, align 1
  store i32 1, ptr %10, align 4
  call void @llvm.lifetime.end.p0(i64 1, ptr %28) #7
  br label %112

106:                                              ; preds = %96
  call void @llvm.lifetime.start.p0(i64 8, ptr %29) #7
  %107 = load ptr, ptr %5, align 8, !tbaa !4
  %108 = load ptr, ptr %7, align 8, !tbaa !4
  %109 = call ptr @lean_string_utf8_next(ptr noundef %107, ptr noundef %108)
  store ptr %109, ptr %29, align 8, !tbaa !4
  %110 = load ptr, ptr %7, align 8, !tbaa !4
  call void @lean_dec(ptr noundef %110)
  %111 = load ptr, ptr %29, align 8, !tbaa !4
  store ptr %111, ptr %7, align 8, !tbaa !4
  store i32 2, ptr %10, align 4
  call void @llvm.lifetime.end.p0(i64 8, ptr %29) #7
  br label %112

112:                                              ; preds = %106, %103
  call void @llvm.lifetime.end.p0(i64 1, ptr %27) #7
  call void @llvm.lifetime.end.p0(i64 4, ptr %26) #7
  br label %113

113:                                              ; preds = %112, %93
  call void @llvm.lifetime.end.p0(i64 1, ptr %24) #7
  call void @llvm.lifetime.end.p0(i64 4, ptr %23) #7
  br label %120

114:                                              ; preds = %79
  call void @llvm.lifetime.start.p0(i64 8, ptr %30) #7
  %115 = load ptr, ptr %5, align 8, !tbaa !4
  %116 = load ptr, ptr %7, align 8, !tbaa !4
  %117 = call ptr @lean_string_utf8_next(ptr noundef %115, ptr noundef %116)
  store ptr %117, ptr %30, align 8, !tbaa !4
  %118 = load ptr, ptr %7, align 8, !tbaa !4
  call void @lean_dec(ptr noundef %118)
  %119 = load ptr, ptr %30, align 8, !tbaa !4
  store ptr %119, ptr %7, align 8, !tbaa !4
  store i32 2, ptr %10, align 4
  call void @llvm.lifetime.end.p0(i64 8, ptr %30) #7
  br label %120

120:                                              ; preds = %114, %113
  call void @llvm.lifetime.end.p0(i64 1, ptr %22) #7
  call void @llvm.lifetime.end.p0(i64 4, ptr %21) #7
  br label %121

121:                                              ; preds = %120, %78
  call void @llvm.lifetime.end.p0(i64 1, ptr %13) #7
  call void @llvm.lifetime.end.p0(i64 4, ptr %12) #7
  call void @llvm.lifetime.end.p0(i64 4, ptr %11) #7
  br label %122

122:                                              ; preds = %121, %38
  call void @llvm.lifetime.end.p0(i64 1, ptr %8) #7
  %123 = load i32, ptr %10, align 4
  switch i32 %123, label %126 [
    i32 1, label %124
    i32 2, label %31
  ]

124:                                              ; preds = %122
  %125 = load i8, ptr %4, align 1
  ret i8 %125

126:                                              ; preds = %122
  unreachable
}