; Function Attrs: nounwind uwtable
define zeroext range(i8 0, 2) i8 @l_String_anyAux___at_Lake_Git_isFullObjectName___spec__1(ptr noundef %0, ptr noundef %1, ptr noundef %2) local_unnamed_addr #0 {
  %4 = ptrtoint ptr %1 to i64
  %5 = and i64 %4, 1
  %.not91 = icmp eq i64 %5, 0
  br label %lean_dec.exit67

lean_dec.exit67:                                  ; preds = %lean_dec.exit67.backedge, %3
  %.046 = phi ptr [ %2, %3 ], [ %.046.be, %lean_dec.exit67.backedge ]
  %6 = ptrtoint ptr %.046 to i64
  %7 = and i64 %6, 1
  %.not = icmp eq i64 %7, 0
  br i1 %.not, label %lean_nat_lt.exit.thread89, label %8, !prof !14

8:                                                ; preds = %lean_dec.exit67
  br i1 %.not91, label %lean_nat_lt.exit, label %lean_nat_lt.exit.thread, !prof !14

lean_nat_lt.exit:                                 ; preds = %8
  %9 = tail call zeroext i1 @lean_nat_big_lt(ptr noundef %.046, ptr noundef %1) #3
  br i1 %9, label %18, label %.thread

lean_nat_lt.exit.thread89:                        ; preds = %lean_dec.exit67
  %10 = tail call zeroext i1 @lean_nat_big_lt(ptr noundef %.046, ptr noundef %1) #3
  br i1 %10, label %.thread109, label %11

lean_nat_lt.exit.thread:                          ; preds = %8
  %.not92 = icmp ult ptr %.046, %1
  br i1 %.not92, label %18, label %.thread

11:                                               ; preds = %lean_nat_lt.exit.thread89
  %12 = load i32, ptr %.046, align 4, !tbaa !8
  %13 = icmp sgt i32 %12, 1
  br i1 %13, label %14, label %16, !prof !11

14:                                               ; preds = %11
  %15 = add nsw i32 %12, -1
  store i32 %15, ptr %.046, align 4, !tbaa !8
  br label %.thread

16:                                               ; preds = %11
  %.not.i = icmp eq i32 %12, 0
  br i1 %.not.i, label %.thread, label %17

17:                                               ; preds = %16
  tail call void @lean_dec_ref_cold(ptr noundef nonnull %.046) #3
  br label %.thread

18:                                               ; preds = %lean_nat_lt.exit.thread, %lean_nat_lt.exit
  %19 = tail call i32 @lean_string_utf8_get(ptr noundef %0, ptr noundef %.046) #3
  %20 = icmp ult i32 %19, 48
  br i1 %20, label %.thread, label %29

.thread109:                                       ; preds = %lean_nat_lt.exit.thread89
  %21 = tail call i32 @lean_string_utf8_get(ptr noundef %0, ptr noundef %.046) #3
  %22 = icmp ult i32 %21, 48
  br i1 %22, label %.thread110, label %.thread111

.thread110:                                       ; preds = %.thread109
  %23 = load i32, ptr %.046, align 4, !tbaa !8
  %24 = icmp sgt i32 %23, 1
  br i1 %24, label %25, label %27, !prof !11

25:                                               ; preds = %.thread110
  %26 = add nsw i32 %23, -1
  store i32 %26, ptr %.046, align 4, !tbaa !8
  br label %.thread

27:                                               ; preds = %.thread110
  %.not.i68 = icmp eq i32 %23, 0
  br i1 %.not.i68, label %.thread, label %28

28:                                               ; preds = %27
  tail call void @lean_dec_ref_cold(ptr noundef nonnull %.046) #3
  br label %.thread

29:                                               ; preds = %18
  %30 = icmp ugt i32 %19, 57
  br i1 %30, label %35, label %60

.thread111:                                       ; preds = %.thread109
  %31 = icmp ugt i32 %21, 57
  br i1 %31, label %.thread113, label %.thread112

.thread112:                                       ; preds = %.thread111
  %32 = tail call ptr @lean_string_utf8_next(ptr noundef %0, ptr noundef %.046) #3
  %33 = load i32, ptr %.046, align 4, !tbaa !8
  %34 = icmp sgt i32 %33, 1
  br i1 %34, label %62, label %64, !prof !11

35:                                               ; preds = %29
  %36 = add i32 %19, -103
  %or.cond = icmp ult i32 %36, -6
  br i1 %or.cond, label %.thread, label %54

.thread113:                                       ; preds = %.thread111
  %37 = icmp ult i32 %21, 97
  br i1 %37, label %.thread114, label %.thread115

.thread114:                                       ; preds = %.thread113
  %38 = load i32, ptr %.046, align 4, !tbaa !8
  %39 = icmp sgt i32 %38, 1
  br i1 %39, label %40, label %42, !prof !11

40:                                               ; preds = %.thread114
  %41 = add nsw i32 %38, -1
  store i32 %41, ptr %.046, align 4, !tbaa !8
  br label %.thread

42:                                               ; preds = %.thread114
  %.not.i74 = icmp eq i32 %38, 0
  br i1 %.not.i74, label %.thread, label %43

43:                                               ; preds = %42
  tail call void @lean_dec_ref_cold(ptr noundef nonnull %.046) #3
  br label %.thread

.thread115:                                       ; preds = %.thread113
  %44 = icmp ugt i32 %21, 102
  br i1 %44, label %.thread116, label %.thread117

.thread117:                                       ; preds = %.thread115
  %45 = tail call ptr @lean_string_utf8_next(ptr noundef %0, ptr noundef %.046) #3
  %46 = load i32, ptr %.046, align 4, !tbaa !8
  %47 = icmp sgt i32 %46, 1
  br i1 %47, label %56, label %58, !prof !11

.thread116:                                       ; preds = %.thread115
  %48 = load i32, ptr %.046, align 4, !tbaa !8
  %49 = icmp sgt i32 %48, 1
  br i1 %49, label %50, label %52, !prof !11

50:                                               ; preds = %.thread116
  %51 = add nsw i32 %48, -1
  store i32 %51, ptr %.046, align 4, !tbaa !8
  br label %.thread

52:                                               ; preds = %.thread116
  %.not.i76 = icmp eq i32 %48, 0
  br i1 %.not.i76, label %.thread, label %53

53:                                               ; preds = %52
  tail call void @lean_dec_ref_cold(ptr noundef nonnull %.046) #3
  br label %.thread

54:                                               ; preds = %35
  %55 = tail call ptr @lean_string_utf8_next(ptr noundef %0, ptr noundef %.046) #3
  br label %lean_dec.exit67.backedge

lean_dec.exit67.backedge:                         ; preds = %54, %60, %62, %64, %65, %56, %58, %59
  %.046.be = phi ptr [ %45, %59 ], [ %45, %58 ], [ %45, %56 ], [ %55, %54 ], [ %32, %65 ], [ %32, %64 ], [ %32, %62 ], [ %61, %60 ]
  br label %lean_dec.exit67

56:                                               ; preds = %.thread117
  %57 = add nsw i32 %46, -1
  store i32 %57, ptr %.046, align 4, !tbaa !8
  br label %lean_dec.exit67.backedge

58:                                               ; preds = %.thread117
  %.not.i78 = icmp eq i32 %46, 0
  br i1 %.not.i78, label %lean_dec.exit67.backedge, label %59

59:                                               ; preds = %58
  tail call void @lean_dec_ref_cold(ptr noundef nonnull %.046) #3
  br label %lean_dec.exit67.backedge

60:                                               ; preds = %29
  %61 = tail call ptr @lean_string_utf8_next(ptr noundef %0, ptr noundef %.046) #3
  br label %lean_dec.exit67.backedge

62:                                               ; preds = %.thread112
  %63 = add nsw i32 %33, -1
  store i32 %63, ptr %.046, align 4, !tbaa !8
  br label %lean_dec.exit67.backedge

64:                                               ; preds = %.thread112
  %.not.i80 = icmp eq i32 %33, 0
  br i1 %.not.i80, label %lean_dec.exit67.backedge, label %65

65:                                               ; preds = %64
  tail call void @lean_dec_ref_cold(ptr noundef nonnull %.046) #3
  br label %lean_dec.exit67.backedge

.thread:                                          ; preds = %lean_nat_lt.exit, %lean_nat_lt.exit.thread, %35, %18, %17, %16, %14, %28, %27, %25, %43, %42, %40, %53, %52, %50
  %.1.ph = phi i8 [ 1, %50 ], [ 1, %52 ], [ 1, %53 ], [ 1, %40 ], [ 1, %42 ], [ 1, %43 ], [ 1, %25 ], [ 1, %27 ], [ 1, %28 ], [ 0, %14 ], [ 0, %16 ], [ 0, %17 ], [ 0, %lean_nat_lt.exit ], [ 0, %lean_nat_lt.exit.thread ], [ 1, %35 ], [ 1, %18 ]
  ret i8 %.1.ph
}